target datalayout = "e-m:e-p270:32:32-p271:32:32-p272:64:64-i64:64-i128:128-f80:128-n8:16:32:64-S128"
target triple = "x86_64-pc-linux-gnu"

%struct.RangeVar = type { i32, ptr, ptr, ptr, i8, i8, ptr, i32 }

@MyDatabaseId = external global i32, align 4
@.str = private unnamed_addr constant [58 x i8] c"cross-database references are not implemented: \22%s.%s.%s\22\00", align 1
@.str.1 = private unnamed_addr constant [12 x i8] c"namespace.c\00", align 1
@SharedInvalidMessageCounter = external global i64, align 8
@__func__.RangeVarGetAndCheckCreationNamespace = private unnamed_addr constant [37 x i8] c"RangeVarGetAndCheckCreationNamespace\00", align 1
@Mode = external global i32, align 4

; Function Attrs: nounwind uwtable
define dso_local i32 @RangeVarGetAndCheckCreationNamespace(ptr noundef %0, i32 noundef %1, ptr noundef %2) #0 {
  %4 = alloca ptr, align 8
  %5 = alloca i32, align 4
  %6 = alloca ptr, align 8
  %7 = alloca i64, align 8
  %8 = alloca i32, align 4
  %9 = alloca i32, align 4
  %10 = alloca i32, align 4
  %11 = alloca i32, align 4
  %12 = alloca i8, align 1
  %13 = alloca i32, align 4
  %14 = alloca i32, align 4
  store ptr %0, ptr %4, align 8
  store i32 %1, ptr %5, align 4
  store ptr %2, ptr %6, align 8
  call void @llvm.lifetime.start.p0(i64 8, ptr %7) #14
  call void @llvm.lifetime.start.p0(i64 4, ptr %8) #14
  call void @llvm.lifetime.start.p0(i64 4, ptr %9) #14
  store i32 0, ptr %9, align 4
  call void @llvm.lifetime.start.p0(i64 4, ptr %10) #14
  call void @llvm.lifetime.start.p0(i64 4, ptr %11) #14
  store i32 0, ptr %11, align 4
  call void @llvm.lifetime.start.p0(i64 1, ptr %12) #14
  store i8 0, ptr %12, align 1
  %15 = load ptr, ptr %4, align 8
  %16 = getelementptr inbounds nuw %struct.RangeVar, ptr %15, i32 0, i32 1
  %17 = load ptr, ptr %16, align 8
  %18 = icmp ne ptr %17, null
  br i1 %18, label %19, label %49

19:                                               ; preds = %3
  %20 = load ptr, ptr %4, align 8
  %21 = getelementptr inbounds nuw %struct.RangeVar, ptr %20, i32 0, i32 1
  %22 = load ptr, ptr %21, align 8
  %23 = load i32, ptr @MyDatabaseId, align 4
  %24 = call ptr @get_database_name(i32 noundef %23)
  %25 = call i32 @strcmp(ptr noundef %22, ptr noundef %24) #15
  %26 = icmp ne i32 %25, 0
  br i1 %26, label %27, label %48

27:                                               ; preds = %19
  br label %28

28:                                               ; preds = %27
  br i1 true, label %29, label %31

29:                                               ; preds = %28
  %30 = call zeroext i1 @errstart_cold(i32 noundef 21, ptr noundef null) #16
  br i1 %30, label %33, label %45

31:                                               ; preds = %28
  %32 = call zeroext i1 @errstart(i32 noundef 21, ptr noundef null)
  br i1 %32, label %33, label %45

33:                                               ; preds = %31, %29
  %34 = call i32 @errcode(i32 noundef 1088)
  %35 = load ptr, ptr %4, align 8
  %36 = getelementptr inbounds nuw %struct.RangeVar, ptr %35, i32 0, i32 1
  %37 = load ptr, ptr %36, align 8
  %38 = load ptr, ptr %4, align 8
  %39 = getelementptr inbounds nuw %struct.RangeVar, ptr %38, i32 0, i32 2
  %40 = load ptr, ptr %39, align 8
  %41 = load ptr, ptr %4, align 8
  %42 = getelementptr inbounds nuw %struct.RangeVar, ptr %41, i32 0, i32 3
  %43 = load ptr, ptr %42, align 8
  %44 = call i32 (ptr, ...) @errmsg(ptr noundef @.str, ptr noundef %37, ptr noundef %40, ptr noundef %43)
  call void @errfinish(ptr noundef @.str.1, i32 noundef 760, ptr noundef @__func__.RangeVarGetAndCheckCreationNamespace)
  br label %45

45:                                               ; preds = %33, %31, %29
  unreachable

46:                                               ; No predecessors!
  br label %47

47:                                               ; preds = %46
  br label %48

48:                                               ; preds = %47, %19
  br label %49

49:                                               ; preds = %48, %3
  br label %50

50:                                               ; preds = %150, %49
  call void @llvm.lifetime.start.p0(i64 4, ptr %13) #14
  %51 = load i64, ptr @SharedInvalidMessageCounter, align 8
  store i64 %51, ptr %7, align 8
  %52 = load ptr, ptr %4, align 8
  %53 = call i32 @RangeVarGetCreationNamespace(ptr noundef %52)
  store i32 %53, ptr %10, align 4
  %54 = load ptr, ptr %6, align 8
  %55 = icmp ne ptr %54, null
  br i1 %55, label %56, label %62

56:                                               ; preds = %50
  %57 = load ptr, ptr %4, align 8
  %58 = getelementptr inbounds nuw %struct.RangeVar, ptr %57, i32 0, i32 3
  %59 = load ptr, ptr %58, align 8
  %60 = load i32, ptr %10, align 4
  %61 = call i32 @get_relname_relid(ptr noundef %59, i32 noundef %60)
  store i32 %61, ptr %8, align 4
  br label %63

62:                                               ; preds = %50
  store i32 0, ptr %8, align 4
  br label %63

63:                                               ; preds = %62, %56
  %64 = load i32, ptr @Mode, align 4
  %65 = icmp eq i32 %64, 0
  br i1 %65, label %66, label %67

66:                                               ; preds = %63
  store i32 4, ptr %14, align 4
  br label %148

67:                                               ; preds = %63
  %68 = load i32, ptr %10, align 4
  %69 = call i32 @GetUserId()
  %70 = call i32 @object_aclcheck(i32 noundef 2615, i32 noundef %68, i32 noundef %69, i64 noundef 512)
  store i32 %70, ptr %13, align 4
  %71 = load i32, ptr %13, align 4
  %72 = icmp ne i32 %71, 0
  br i1 %72, label %73, label %77

73:                                               ; preds = %67
  %74 = load i32, ptr %13, align 4
  %75 = load i32, ptr %10, align 4
  %76 = call ptr @get_namespace_name(i32 noundef %75)
  call void @aclcheck_error(i32 noundef %74, i32 noundef 36, ptr noundef %76)
  br label %77

77:                                               ; preds = %73, %67
  %78 = load i8, ptr %12, align 1, !range !4, !noundef !5
  %79 = trunc i8 %78 to i1
  br i1 %79, label %80, label %109

80:                                               ; preds = %77
  %81 = load i32, ptr %8, align 4
  %82 = load i32, ptr %9, align 4
  %83 = icmp eq i32 %81, %82
  br i1 %83, label %84, label %89

84:                                               ; preds = %80
  %85 = load i32, ptr %10, align 4
  %86 = load i32, ptr %11, align 4
  %87 = icmp eq i32 %85, %86
  br i1 %87, label %88, label %89

88:                                               ; preds = %84
  store i32 4, ptr %14, align 4
  br label %148

89:                                               ; preds = %84, %80
  %90 = load i32, ptr %10, align 4
  %91 = load i32, ptr %11, align 4
  %92 = icmp ne i32 %90, %91
  br i1 %92, label %93, label %95

93:                                               ; preds = %89
  %94 = load i32, ptr %11, align 4
  call void @UnlockDatabaseObject(i32 noundef 2615, i32 noundef %94, i16 noundef zeroext 0, i32 noundef 1)
  br label %95

95:                                               ; preds = %93, %89
  %96 = load i32, ptr %8, align 4
  %97 = load i32, ptr %9, align 4
  %98 = icmp ne i32 %96, %97
  br i1 %98, label %99, label %108

99:                                               ; preds = %95
  %100 = load i32, ptr %9, align 4
  %101 = icmp ne i32 %100, 0
  br i1 %101, label %102, label %108

102:                                              ; preds = %99
  %103 = load i32, ptr %5, align 4
  %104 = icmp ne i32 %103, 0
  br i1 %104, label %105, label %108

105:                                              ; preds = %102
  %106 = load i32, ptr %9, align 4
  %107 = load i32, ptr %5, align 4
  call void @UnlockRelationOid(i32 noundef %106, i32 noundef %107)
  br label %108

108:                                              ; preds = %105, %102, %99, %95
  br label %109

109:                                              ; preds = %108, %77
  %110 = load i32, ptr %10, align 4
  %111 = load i32, ptr %11, align 4
  %112 = icmp ne i32 %110, %111
  br i1 %112, label %113, label %115

113:                                              ; preds = %109
  %114 = load i32, ptr %10, align 4
  call void @LockDatabaseObject(i32 noundef 2615, i32 noundef %114, i16 noundef zeroext 0, i32 noundef 1)
  br label %115

115:                                              ; preds = %113, %109
  %116 = load i32, ptr %5, align 4
  %117 = icmp ne i32 %116, 0
  br i1 %117, label %118, label %140

118:                                              ; preds = %115
  %119 = load i32, ptr %8, align 4
  %120 = icmp ne i32 %119, 0
  br i1 %120, label %121, label %140

121:                                              ; preds = %118
  %122 = load i32, ptr %8, align 4
  %123 = call i32 @GetUserId()
  %124 = call zeroext i1 @object_ownercheck(i32 noundef 1259, i32 noundef %122, i32 noundef %123)
  br i1 %124, label %132, label %125

125:                                              ; preds = %121
  %126 = load i32, ptr %8, align 4
  %127 = call signext i8 @get_rel_relkind(i32 noundef %126)
  %128 = call i32 @get_relkind_objtype(i8 noundef signext %127)
  %129 = load ptr, ptr %4, align 8
  %130 = getelementptr inbounds nuw %struct.RangeVar, ptr %129, i32 0, i32 3
  %131 = load ptr, ptr %130, align 8
  call void @aclcheck_error(i32 noundef 2, i32 noundef %128, ptr noundef %131)
  br label %132

132:                                              ; preds = %125, %121
  %133 = load i32, ptr %8, align 4
  %134 = load i32, ptr %9, align 4
  %135 = icmp ne i32 %133, %134
  br i1 %135, label %136, label %139

136:                                              ; preds = %132
  %137 = load i32, ptr %8, align 4
  %138 = load i32, ptr %5, align 4
  call void @LockRelationOid(i32 noundef %137, i32 noundef %138)
  br label %139

139:                                              ; preds = %136, %132
  br label %140

140:                                              ; preds = %139, %118, %115
  %141 = load i64, ptr %7, align 8
  %142 = load i64, ptr @SharedInvalidMessageCounter, align 8
  %143 = icmp eq i64 %141, %142
  br i1 %143, label %144, label %145

144:                                              ; preds = %140
  store i32 4, ptr %14, align 4
  br label %148

145:                                              ; preds = %140
  store i8 1, ptr %12, align 1
  %146 = load i32, ptr %8, align 4
  store i32 %146, ptr %9, align 4
  %147 = load i32, ptr %10, align 4
  store i32 %147, ptr %11, align 4
  store i32 0, ptr %14, align 4
  br label %148

148:                                              ; preds = %145, %144, %88, %66
  call void @llvm.lifetime.end.p0(i64 4, ptr %13) #14
  %149 = load i32, ptr %14, align 4
  switch i32 %149, label %161 [
    i32 0, label %150
    i32 4, label %151
  ]

150:                                              ; preds = %148
  br label %50

151:                                              ; preds = %148
  %152 = load ptr, ptr %4, align 8
  %153 = load i32, ptr %10, align 4
  call void @RangeVarAdjustRelationPersistence(ptr noundef %152, i32 noundef %153)
  %154 = load ptr, ptr %6, align 8
  %155 = icmp ne ptr %154, null
  br i1 %155, label %156, label %159

156:                                              ; preds = %151
  %157 = load i32, ptr %8, align 4
  %158 = load ptr, ptr %6, align 8
  store i32 %157, ptr %158, align 4
  br label %159

159:                                              ; preds = %156, %151
  %160 = load i32, ptr %10, align 4
  store i32 1, ptr %14, align 4
  call void @llvm.lifetime.end.p0(i64 1, ptr %12) #14
  call void @llvm.lifetime.end.p0(i64 4, ptr %11) #14
  call void @llvm.lifetime.end.p0(i64 4, ptr %10) #14
  call void @llvm.lifetime.end.p0(i64 4, ptr %9) #14
  call void @llvm.lifetime.end.p0(i64 4, ptr %8) #14
  call void @llvm.lifetime.end.p0(i64 8, ptr %7) #14
  ret i32 %160

161:                                              ; preds = %148
  unreachable
}