; Function Attrs: nounwind uwtable
define dso_local noundef i32 @RangeVarGetAndCheckCreationNamespace(ptr noundef captures(none) %0, i32 noundef %1, ptr noundef writeonly captures(address_is_null) %2) local_unnamed_addr #0 {
  %4 = getelementptr inbounds nuw i8, ptr %0, i64 8
  %5 = load ptr, ptr %4, align 8
  %.not = icmp eq ptr %5, null
  br i1 %.not, label %19, label %6

6:                                                ; preds = %3
  %7 = load i32, ptr @MyDatabaseId, align 4
  %8 = tail call ptr @get_database_name(i32 noundef %7) #19
  %9 = tail call i32 @strcmp(ptr noundef nonnull dereferenceable(1) %5, ptr noundef nonnull dereferenceable(1) %8) #20
  %.not65 = icmp eq i32 %9, 0
  br i1 %.not65, label %19, label %10

10:                                               ; preds = %6
  %11 = tail call zeroext i1 @errstart_cold(i32 noundef 21, ptr noundef null) #21
  tail call void @llvm.assume(i1 %11)
  %12 = tail call i32 @errcode(i32 noundef 1088) #19
  %13 = load ptr, ptr %4, align 8
  %14 = getelementptr inbounds nuw i8, ptr %0, i64 16
  %15 = load ptr, ptr %14, align 8
  %16 = getelementptr inbounds nuw i8, ptr %0, i64 24
  %17 = load ptr, ptr %16, align 8
  %18 = tail call i32 (ptr, ...) @errmsg(ptr noundef nonnull @.str, ptr noundef %13, ptr noundef %15, ptr noundef %17) #19
  tail call void @errfinish(ptr noundef nonnull @.str.1, i32 noundef 760, ptr noundef nonnull @__func__.RangeVarGetAndCheckCreationNamespace) #19
  unreachable

19:                                               ; preds = %6, %3
  %.not66 = icmp eq ptr %2, null
  %20 = getelementptr inbounds nuw i8, ptr %0, i64 24
  %21 = icmp ne i32 %1, 0
  %.pre = load i64, ptr @SharedInvalidMessageCounter, align 8
  br label %22

22:                                               ; preds = %59, %19
  %23 = phi i64 [ %.pre, %19 ], [ %60, %59 ]
  %.057 = phi i32 [ 0, %19 ], [ %.053, %59 ]
  %.055 = phi i32 [ 0, %19 ], [ %24, %59 ]
  %.054 = phi i1 [ false, %19 ], [ true, %59 ]
  %24 = tail call i32 @RangeVarGetCreationNamespace(ptr noundef %0)
  br i1 %.not66, label %28, label %25

25:                                               ; preds = %22
  %26 = load ptr, ptr %20, align 8
  %27 = tail call i32 @get_relname_relid(ptr noundef %26, i32 noundef %24) #19
  br label %28

28:                                               ; preds = %22, %25
  %.053 = phi i32 [ %27, %25 ], [ 0, %22 ]
  %29 = load i32, ptr @Mode, align 4
  %30 = icmp eq i32 %29, 0
  br i1 %30, label %select.unfold, label %31

31:                                               ; preds = %28
  %32 = tail call i32 @GetUserId() #19
  %33 = tail call i32 @object_aclcheck(i32 noundef 2615, i32 noundef %24, i32 noundef %32, i64 noundef 512) #19
  %.not67 = icmp eq i32 %33, 0
  br i1 %.not67, label %36, label %34

34:                                               ; preds = %31
  %35 = tail call ptr @get_namespace_name(i32 noundef %24) #19
  tail call void @aclcheck_error(i32 noundef %33, i32 noundef 36, ptr noundef %35) #19
  br label %36

36:                                               ; preds = %34, %31
  br i1 %.054, label %37, label %46

37:                                               ; preds = %36
  %38 = icmp eq i32 %.053, %.057
  %39 = icmp eq i32 %24, %.055
  %or.cond71 = select i1 %38, i1 %39, i1 false
  br i1 %or.cond71, label %select.unfold, label %40

40:                                               ; preds = %37
  br i1 %39, label %42, label %41

41:                                               ; preds = %40
  tail call void @UnlockDatabaseObject(i32 noundef 2615, i32 noundef %.055, i16 noundef zeroext 0, i32 noundef 1) #19
  br label %42

42:                                               ; preds = %41, %40
  %43 = icmp ne i32 %.053, %.057
  %44 = icmp ne i32 %.057, 0
  %or.cond = and i1 %44, %43
  %or.cond3 = and i1 %21, %or.cond
  br i1 %or.cond3, label %45, label %46

45:                                               ; preds = %42
  tail call void @UnlockRelationOid(i32 noundef %.057, i32 noundef %1) #19
  br label %46

46:                                               ; preds = %42, %45, %36
  %.not69 = icmp eq i32 %24, %.055
  br i1 %.not69, label %48, label %47

47:                                               ; preds = %46
  tail call void @LockDatabaseObject(i32 noundef 2615, i32 noundef %24, i16 noundef zeroext 0, i32 noundef 1) #19
  br label %48

48:                                               ; preds = %47, %46
  %49 = icmp ne i32 %.053, 0
  %or.cond5 = select i1 %21, i1 %49, i1 false
  br i1 %or.cond5, label %50, label %59

50:                                               ; preds = %48
  %51 = tail call i32 @GetUserId() #19
  %52 = tail call zeroext i1 @object_ownercheck(i32 noundef 1259, i32 noundef %.053, i32 noundef %51) #19
  br i1 %52, label %57, label %53

53:                                               ; preds = %50
  %54 = tail call signext i8 @get_rel_relkind(i32 noundef %.053) #19
  %55 = tail call i32 @get_relkind_objtype(i8 noundef signext %54) #19
  %56 = load ptr, ptr %20, align 8
  tail call void @aclcheck_error(i32 noundef 2, i32 noundef %55, ptr noundef %56) #19
  br label %57

57:                                               ; preds = %53, %50
  %.not70 = icmp eq i32 %.053, %.057
  br i1 %.not70, label %59, label %58

58:                                               ; preds = %57
  tail call void @LockRelationOid(i32 noundef %.053, i32 noundef %1) #19
  br label %59

59:                                               ; preds = %57, %58, %48
  %60 = load i64, ptr @SharedInvalidMessageCounter, align 8
  %61 = icmp eq i64 %23, %60
  br i1 %61, label %select.unfold, label %22

select.unfold:                                    ; preds = %59, %28, %37
  %.053.lcssa = phi i32 [ %.053, %59 ], [ %.053, %28 ], [ %.057, %37 ]
  %.lcssa = phi i32 [ %24, %59 ], [ %24, %28 ], [ %.055, %37 ]
  tail call void @RangeVarAdjustRelationPersistence(ptr noundef %0, i32 noundef %.lcssa)
  br i1 %.not66, label %63, label %62

62:                                               ; preds = %select.unfold
  store i32 %.053.lcssa, ptr %2, align 4
  br label %63

63:                                               ; preds = %62, %select.unfold
  ret i32 %.lcssa
}